target datalayout = "e-m:e-p270:32:32-p271:32:32-p272:64:64-i64:64-i128:128-f80:128-n8:16:32:64-S128"
target triple = "x86_64-pc-linux-gnu"

%struct.DdManager = type { %struct.DdNode, ptr, ptr, ptr, ptr, ptr, ptr, ptr, i32, i32, double, double, double, i32, i32, i32, i32, i32, i32, ptr, ptr, %struct.DdSubtable, i32, i32, i32, i32, i32, i32, i32, double, i32, i32, i32, ptr, i64, double, i32, ptr, ptr, ptr, ptr, ptr, ptr, ptr, i32, ptr, ptr, ptr, ptr, ptr, ptr, i32, i32, i32, double, i32, i32, i32, i32, double, double, i32, i32, i32, i32, i32, i32, i32, i32, i32, ptr, ptr, i32, i32, i32, i32, i32, i32, ptr, ptr, ptr, ptr, ptr, ptr, ptr, ptr, i32, i64, i64, i64, i32, i64, i64, double, double, double, double, double, double, i32, ptr, ptr, i64 }
%struct.DdNode = type { i32, i32, ptr, %union.anon, i64 }
%union.anon = type { %struct.DdChildren }
%struct.DdChildren = type { ptr, ptr }
%struct.DdSubtable = type { ptr, i32, i32, i32, i32, i32, i32, i32, i32, i32, i32, i32 }
%struct.timespec = type { i64, i64 }

@.str.18 = private unnamed_addr constant [17 x i8] c".names %s%lx %s\0A\00", align 1
@.str.19 = private unnamed_addr constant [6 x i8] c"%s 1\0A\00", align 1
@.str.20 = private unnamed_addr constant [2 x i8] c"0\00", align 1
@.str.21 = private unnamed_addr constant [2 x i8] c"1\00", align 1
@.str.22 = private unnamed_addr constant [14 x i8] c".names %s%lx\0A\00", align 1
@.str.23 = private unnamed_addr constant [5 x i8] c" %s\0A\00", align 1
@.str.24 = private unnamed_addr constant [29 x i8] c".names %s %s%lx %s%lx %s%lx\0A\00", align 1
@.str.25 = private unnamed_addr constant [7 x i8] c"01- 1\0A\00", align 1
@.str.26 = private unnamed_addr constant [7 x i8] c"1-1 1\0A\00", align 1
@.str.27 = private unnamed_addr constant [31 x i8] c".names %s %s%lx_i %s%lx %s%lx\0A\00", align 1
@.str.28 = private unnamed_addr constant [22 x i8] c".names %s%lx %s%lx_i\0A\00", align 1
@.str.29 = private unnamed_addr constant [5 x i8] c"0 1\0A\00", align 1
@s_ddmin = internal global ptr null, align 8
@.str.30 = private unnamed_addr constant [22 x i8] c"Nodes before = %d.   \00", align 1
@.str.31 = private unnamed_addr constant [22 x i8] c"Nodes after  = %d.  \0A\00", align 1

; Function Attrs: inlinehint nounwind uwtable
define internal i64 @Abc_Clock() #3 {
  %1 = alloca i64, align 8
  %2 = alloca %struct.timespec, align 8
  %3 = alloca i32, align 4
  %4 = alloca i64, align 8
  call void @llvm.lifetime.start.p0(i64 16, ptr %2) #5
  %5 = call i32 @clock_gettime(i32 noundef 1, ptr noundef %2) #5
  %6 = icmp slt i32 %5, 0
  br i1 %6, label %7, label %8

7:                                                ; preds = %0
  store i64 -1, ptr %1, align 8
  store i32 1, ptr %3, align 4
  br label %19

8:                                                ; preds = %0
  call void @llvm.lifetime.start.p0(i64 8, ptr %4) #5
  %9 = getelementptr inbounds nuw %struct.timespec, ptr %2, i32 0, i32 0
  %10 = load i64, ptr %9, align 8, !tbaa !72
  %11 = mul nsw i64 %10, 1000000
  store i64 %11, ptr %4, align 8, !tbaa !20
  %12 = getelementptr inbounds nuw %struct.timespec, ptr %2, i32 0, i32 1
  %13 = load i64, ptr %12, align 8, !tbaa !74
  %14 = mul nsw i64 %13, 1000000
  %15 = sdiv i64 %14, 1000000000
  %16 = load i64, ptr %4, align 8, !tbaa !20
  %17 = add nsw i64 %16, %15
  store i64 %17, ptr %4, align 8, !tbaa !20
  %18 = load i64, ptr %4, align 8, !tbaa !20
  store i64 %18, ptr %1, align 8
  store i32 1, ptr %3, align 4
  call void @llvm.lifetime.end.p0(i64 8, ptr %4) #5
  br label %19

19:                                               ; preds = %8, %7
  call void @llvm.lifetime.end.p0(i64 16, ptr %2) #5
  %20 = load i64, ptr %1, align 8
  ret i64 %20
}

; Function Attrs: nounwind uwtable
define void @WriteDDintoBLIFfileReorder(ptr noundef %0, ptr noundef %1, ptr noundef %2, ptr noundef %3, ptr noundef %4, ptr noundef %5) #0 {
  %7 = alloca ptr, align 8
  %8 = alloca ptr, align 8
  %9 = alloca ptr, align 8
  %10 = alloca ptr, align 8
  %11 = alloca ptr, align 8
  %12 = alloca ptr, align 8
  %13 = alloca i32, align 4
  %14 = alloca ptr, align 8
  %15 = alloca ptr, align 8
  %16 = alloca i64, align 8
  %17 = alloca i64, align 8
  %18 = alloca i64, align 8
  %19 = alloca ptr, align 8
  %20 = alloca ptr, align 8
  %21 = alloca ptr, align 8
  %22 = alloca ptr, align 8
  %23 = alloca ptr, align 8
  %24 = alloca i64, align 8
  store ptr %0, ptr %7, align 8, !tbaa !8
  store ptr %1, ptr %8, align 8, !tbaa !41
  store ptr %2, ptr %9, align 8, !tbaa !14
  store ptr %3, ptr %10, align 8, !tbaa !3
  store ptr %4, ptr %11, align 8, !tbaa !3
  store ptr %5, ptr %12, align 8, !tbaa !39
  call void @llvm.lifetime.start.p0(i64 4, ptr %13) #5
  call void @llvm.lifetime.start.p0(i64 8, ptr %14) #5
  call void @llvm.lifetime.start.p0(i64 8, ptr %15) #5
  store ptr null, ptr %15, align 8, !tbaa !59
  call void @llvm.lifetime.start.p0(i64 8, ptr %16) #5
  call void @llvm.lifetime.start.p0(i64 8, ptr %17) #5
  call void @llvm.lifetime.start.p0(i64 8, ptr %18) #5
  call void @llvm.lifetime.start.p0(i64 8, ptr %19) #5
  call void @llvm.lifetime.start.p0(i64 8, ptr %20) #5
  call void @llvm.lifetime.start.p0(i64 8, ptr %21) #5
  call void @llvm.lifetime.start.p0(i64 8, ptr %22) #5
  call void @llvm.lifetime.start.p0(i64 8, ptr %23) #5
  call void @llvm.lifetime.start.p0(i64 8, ptr %24) #5
  %25 = load ptr, ptr @s_ddmin, align 8, !tbaa !8
  %26 = icmp eq ptr %25, null
  br i1 %26, label %27, label %32

27:                                               ; preds = %6
  %28 = load ptr, ptr %7, align 8, !tbaa !8
  %29 = getelementptr inbounds nuw %struct.DdManager, ptr %28, i32 0, i32 15
  %30 = load i32, ptr %29, align 8, !tbaa !66
  %31 = call ptr @Cudd_Init(i32 noundef %30, i32 noundef 0, i32 noundef 256, i32 noundef 262144, i64 noundef 0)
  store ptr %31, ptr @s_ddmin, align 8, !tbaa !8
  br label %32

32:                                               ; preds = %27, %6
  %33 = call i64 @Abc_Clock()
  store i64 %33, ptr %24, align 8, !tbaa !20
  %34 = load ptr, ptr %7, align 8, !tbaa !8
  %35 = load ptr, ptr @s_ddmin, align 8, !tbaa !8
  %36 = load ptr, ptr %9, align 8, !tbaa !14
  %37 = call ptr @Cudd_bddTransfer(ptr noundef %34, ptr noundef %35, ptr noundef %36)
  store ptr %37, ptr %23, align 8, !tbaa !14
  %38 = load ptr, ptr %23, align 8, !tbaa !14
  call void @Cudd_Ref(ptr noundef %38)
  %39 = load ptr, ptr %23, align 8, !tbaa !14
  %40 = call i32 @Cudd_DagSize(ptr noundef %39)
  %41 = call i32 (ptr, ...) @printf(ptr noundef @.str.30, i32 noundef %40)
  %42 = load ptr, ptr @s_ddmin, align 8, !tbaa !8
  %43 = call i32 @Cudd_ReduceHeap(ptr noundef %42, i32 noundef 6, i32 noundef 1)
  %44 = load ptr, ptr %23, align 8, !tbaa !14
  %45 = call i32 @Cudd_DagSize(ptr noundef %44)
  %46 = call i32 (ptr, ...) @printf(ptr noundef @.str.31, i32 noundef %45)
  %47 = call ptr @st__init_table(ptr noundef @st__ptrcmp, ptr noundef @st__ptrhash)
  store ptr %47, ptr %14, align 8, !tbaa !61
  %48 = load ptr, ptr %23, align 8, !tbaa !14
  %49 = ptrtoint ptr %48 to i64
  %50 = and i64 %49, -2
  %51 = inttoptr i64 %50 to ptr
  %52 = load ptr, ptr %14, align 8, !tbaa !61
  %53 = call i32 @cuddCollectNodes(ptr noundef %51, ptr noundef %52)
  %54 = load ptr, ptr %23, align 8, !tbaa !14
  %55 = ptrtoint ptr %54 to i64
  %56 = and i64 %55, -2
  %57 = inttoptr i64 %56 to ptr
  %58 = ptrtoint ptr %57 to i64
  store i64 %58, ptr %16, align 8, !tbaa !20
  store i64 0, ptr %17, align 8, !tbaa !20
  %59 = load ptr, ptr %14, align 8, !tbaa !61
  %60 = call ptr @st__init_gen(ptr noundef %59)
  store ptr %60, ptr %15, align 8, !tbaa !59
  br label %61

61:                                               ; preds = %65, %32
  %62 = load ptr, ptr %15, align 8, !tbaa !59
  %63 = call i32 @st__gen(ptr noundef %62, ptr noundef %19, ptr noundef null)
  %64 = icmp ne i32 %63, 0
  br i1 %64, label %65, label %72

65:                                               ; preds = %61
  %66 = load i64, ptr %16, align 8, !tbaa !20
  %67 = load ptr, ptr %19, align 8, !tbaa !14
  %68 = ptrtoint ptr %67 to i64
  %69 = xor i64 %66, %68
  %70 = load i64, ptr %17, align 8, !tbaa !20
  %71 = or i64 %70, %69
  store i64 %71, ptr %17, align 8, !tbaa !20
  br label %61, !llvm.loop !67

72:                                               ; preds = %61
  %73 = load ptr, ptr %15, align 8, !tbaa !59
  call void @st__free_gen(ptr noundef %73)
  store ptr null, ptr %15, align 8, !tbaa !59
  store i32 0, ptr %13, align 4, !tbaa !12
  br label %74

74:                                               ; preds = %88, %72
  %75 = load i32, ptr %13, align 4, !tbaa !12
  %76 = zext i32 %75 to i64
  %77 = icmp ult i64 %76, 64
  br i1 %77, label %78, label %91

78:                                               ; preds = %74
  %79 = load i32, ptr %13, align 4, !tbaa !12
  %80 = shl i32 1, %79
  %81 = sub nsw i32 %80, 1
  %82 = sext i32 %81 to i64
  store i64 %82, ptr %18, align 8, !tbaa !20
  %83 = load i64, ptr %17, align 8, !tbaa !20
  %84 = load i64, ptr %18, align 8, !tbaa !20
  %85 = icmp sle i64 %83, %84
  br i1 %85, label %86, label %87

86:                                               ; preds = %78
  br label %91

87:                                               ; preds = %78
  br label %88

88:                                               ; preds = %87
  %89 = load i32, ptr %13, align 4, !tbaa !12
  %90 = add nsw i32 %89, 4
  store i32 %90, ptr %13, align 4, !tbaa !12
  br label %74, !llvm.loop !68

91:                                               ; preds = %86, %74
  %92 = load ptr, ptr %8, align 8, !tbaa !41
  %93 = load ptr, ptr %11, align 8, !tbaa !3
  %94 = load i64, ptr %18, align 8, !tbaa !20
  %95 = load ptr, ptr %23, align 8, !tbaa !14
  %96 = ptrtoint ptr %95 to i64
  %97 = and i64 %96, -2
  %98 = inttoptr i64 %97 to ptr
  %99 = ptrtoint ptr %98 to i64
  %100 = and i64 %94, %99
  %101 = udiv i64 %100, 40
  %102 = load ptr, ptr %10, align 8, !tbaa !3
  %103 = call i32 (ptr, ptr, ...) @fprintf(ptr noundef %92, ptr noundef @.str.18, ptr noundef %93, i64 noundef %101, ptr noundef %102) #5
  %104 = load ptr, ptr %8, align 8, !tbaa !41
  %105 = load ptr, ptr %23, align 8, !tbaa !14
  %106 = ptrtoint ptr %105 to i64
  %107 = and i64 %106, 1
  %108 = trunc i64 %107 to i32
  %109 = icmp ne i32 %108, 0
  %110 = select i1 %109, ptr @.str.20, ptr @.str.21
  %111 = call i32 (ptr, ptr, ...) @fprintf(ptr noundef %104, ptr noundef @.str.19, ptr noundef %110) #5
  %112 = load ptr, ptr %14, align 8, !tbaa !61
  %113 = call ptr @st__init_gen(ptr noundef %112)
  store ptr %113, ptr %15, align 8, !tbaa !59
  br label %114

114:                                              ; preds = %235, %123, %91
  %115 = load ptr, ptr %15, align 8, !tbaa !59
  %116 = call i32 @st__gen(ptr noundef %115, ptr noundef %19, ptr noundef null)
  %117 = icmp ne i32 %116, 0
  br i1 %117, label %118, label %236

118:                                              ; preds = %114
  %119 = load ptr, ptr %19, align 8, !tbaa !14
  %120 = getelementptr inbounds nuw %struct.DdNode, ptr %119, i32 0, i32 0
  %121 = load i32, ptr %120, align 8, !tbaa !44
  %122 = icmp eq i32 %121, 2147483647
  br i1 %122, label %123, label %139

123:                                              ; preds = %118
  %124 = load ptr, ptr %8, align 8, !tbaa !41
  %125 = load ptr, ptr %11, align 8, !tbaa !3
  %126 = load i64, ptr %18, align 8, !tbaa !20
  %127 = load ptr, ptr %19, align 8, !tbaa !14
  %128 = ptrtoint ptr %127 to i64
  %129 = and i64 %126, %128
  %130 = udiv i64 %129, 40
  %131 = call i32 (ptr, ptr, ...) @fprintf(ptr noundef %124, ptr noundef @.str.22, ptr noundef %125, i64 noundef %130) #5
  %132 = load ptr, ptr %8, align 8, !tbaa !41
  %133 = load ptr, ptr %19, align 8, !tbaa !14
  %134 = getelementptr inbounds nuw %struct.DdNode, ptr %133, i32 0, i32 3
  %135 = load double, ptr %134, align 8, !tbaa !45
  %136 = fcmp oeq double %135, 0.000000e+00
  %137 = select i1 %136, ptr @.str.20, ptr @.str.21
  %138 = call i32 (ptr, ptr, ...) @fprintf(ptr noundef %132, ptr noundef @.str.23, ptr noundef %137) #5
  br label %114, !llvm.loop !69

139:                                              ; preds = %118
  %140 = load ptr, ptr %19, align 8, !tbaa !14
  %141 = getelementptr inbounds nuw %struct.DdNode, ptr %140, i32 0, i32 3
  %142 = getelementptr inbounds nuw %struct.DdChildren, ptr %141, i32 0, i32 1
  %143 = load ptr, ptr %142, align 8, !tbaa !45
  store ptr %143, ptr %20, align 8, !tbaa !14
  %144 = load ptr, ptr %20, align 8, !tbaa !14
  %145 = ptrtoint ptr %144 to i64
  %146 = and i64 %145, -2
  %147 = inttoptr i64 %146 to ptr
  store ptr %147, ptr %21, align 8, !tbaa !14
  %148 = load ptr, ptr %19, align 8, !tbaa !14
  %149 = getelementptr inbounds nuw %struct.DdNode, ptr %148, i32 0, i32 3
  %150 = getelementptr inbounds nuw %struct.DdChildren, ptr %149, i32 0, i32 0
  %151 = load ptr, ptr %150, align 8, !tbaa !45
  store ptr %151, ptr %22, align 8, !tbaa !14
  %152 = load ptr, ptr %20, align 8, !tbaa !14
  %153 = load ptr, ptr %21, align 8, !tbaa !14
  %154 = icmp eq ptr %152, %153
  br i1 %154, label %155, label %187

155:                                              ; preds = %139
  %156 = load ptr, ptr %8, align 8, !tbaa !41
  %157 = load ptr, ptr %12, align 8, !tbaa !39
  %158 = load ptr, ptr %19, align 8, !tbaa !14
  %159 = getelementptr inbounds nuw %struct.DdNode, ptr %158, i32 0, i32 0
  %160 = load i32, ptr %159, align 8, !tbaa !44
  %161 = zext i32 %160 to i64
  %162 = getelementptr inbounds nuw ptr, ptr %157, i64 %161
  %163 = load ptr, ptr %162, align 8, !tbaa !3
  %164 = load ptr, ptr %11, align 8, !tbaa !3
  %165 = load i64, ptr %18, align 8, !tbaa !20
  %166 = load ptr, ptr %21, align 8, !tbaa !14
  %167 = ptrtoint ptr %166 to i64
  %168 = and i64 %165, %167
  %169 = udiv i64 %168, 40
  %170 = load ptr, ptr %11, align 8, !tbaa !3
  %171 = load i64, ptr %18, align 8, !tbaa !20
  %172 = load ptr, ptr %22, align 8, !tbaa !14
  %173 = ptrtoint ptr %172 to i64
  %174 = and i64 %171, %173
  %175 = udiv i64 %174, 40
  %176 = load ptr, ptr %11, align 8, !tbaa !3
  %177 = load i64, ptr %18, align 8, !tbaa !20
  %178 = load ptr, ptr %19, align 8, !tbaa !14
  %179 = ptrtoint ptr %178 to i64
  %180 = and i64 %177, %179
  %181 = udiv i64 %180, 40
  %182 = call i32 (ptr, ptr, ...) @fprintf(ptr noundef %156, ptr noundef @.str.24, ptr noundef %163, ptr noundef %164, i64 noundef %169, ptr noundef %170, i64 noundef %175, ptr noundef %176, i64 noundef %181) #5
  %183 = load ptr, ptr %8, align 8, !tbaa !41
  %184 = call i32 (ptr, ptr, ...) @fprintf(ptr noundef %183, ptr noundef @.str.25) #5
  %185 = load ptr, ptr %8, align 8, !tbaa !41
  %186 = call i32 (ptr, ptr, ...) @fprintf(ptr noundef %185, ptr noundef @.str.26) #5
  br label %235

187:                                              ; preds = %139
  %188 = load ptr, ptr %8, align 8, !tbaa !41
  %189 = load ptr, ptr %12, align 8, !tbaa !39
  %190 = load ptr, ptr %19, align 8, !tbaa !14
  %191 = getelementptr inbounds nuw %struct.DdNode, ptr %190, i32 0, i32 0
  %192 = load i32, ptr %191, align 8, !tbaa !44
  %193 = zext i32 %192 to i64
  %194 = getelementptr inbounds nuw ptr, ptr %189, i64 %193
  %195 = load ptr, ptr %194, align 8, !tbaa !3
  %196 = load ptr, ptr %11, align 8, !tbaa !3
  %197 = load i64, ptr %18, align 8, !tbaa !20
  %198 = load ptr, ptr %21, align 8, !tbaa !14
  %199 = ptrtoint ptr %198 to i64
  %200 = and i64 %197, %199
  %201 = udiv i64 %200, 40
  %202 = load ptr, ptr %11, align 8, !tbaa !3
  %203 = load i64, ptr %18, align 8, !tbaa !20
  %204 = load ptr, ptr %22, align 8, !tbaa !14
  %205 = ptrtoint ptr %204 to i64
  %206 = and i64 %203, %205
  %207 = udiv i64 %206, 40
  %208 = load ptr, ptr %11, align 8, !tbaa !3
  %209 = load i64, ptr %18, align 8, !tbaa !20
  %210 = load ptr, ptr %19, align 8, !tbaa !14
  %211 = ptrtoint ptr %210 to i64
  %212 = and i64 %209, %211
  %213 = udiv i64 %212, 40
  %214 = call i32 (ptr, ptr, ...) @fprintf(ptr noundef %188, ptr noundef @.str.27, ptr noundef %195, ptr noundef %196, i64 noundef %201, ptr noundef %202, i64 noundef %207, ptr noundef %208, i64 noundef %213) #5
  %215 = load ptr, ptr %8, align 8, !tbaa !41
  %216 = call i32 (ptr, ptr, ...) @fprintf(ptr noundef %215, ptr noundef @.str.25) #5
  %217 = load ptr, ptr %8, align 8, !tbaa !41
  %218 = call i32 (ptr, ptr, ...) @fprintf(ptr noundef %217, ptr noundef @.str.26) #5
  %219 = load ptr, ptr %8, align 8, !tbaa !41
  %220 = load ptr, ptr %11, align 8, !tbaa !3
  %221 = load i64, ptr %18, align 8, !tbaa !20
  %222 = load ptr, ptr %21, align 8, !tbaa !14
  %223 = ptrtoint ptr %222 to i64
  %224 = and i64 %221, %223
  %225 = udiv i64 %224, 40
  %226 = load ptr, ptr %11, align 8, !tbaa !3
  %227 = load i64, ptr %18, align 8, !tbaa !20
  %228 = load ptr, ptr %21, align 8, !tbaa !14
  %229 = ptrtoint ptr %228 to i64
  %230 = and i64 %227, %229
  %231 = udiv i64 %230, 40
  %232 = call i32 (ptr, ptr, ...) @fprintf(ptr noundef %219, ptr noundef @.str.28, ptr noundef %220, i64 noundef %225, ptr noundef %226, i64 noundef %231) #5
  %233 = load ptr, ptr %8, align 8, !tbaa !41
  %234 = call i32 (ptr, ptr, ...) @fprintf(ptr noundef %233, ptr noundef @.str.29) #5
  br label %235

235:                                              ; preds = %187, %155
  br label %114, !llvm.loop !69

236:                                              ; preds = %114
  %237 = load ptr, ptr %15, align 8, !tbaa !59
  call void @st__free_gen(ptr noundef %237)
  store ptr null, ptr %15, align 8, !tbaa !59
  %238 = load ptr, ptr %14, align 8, !tbaa !61
  call void @st__free_table(ptr noundef %238)
  %239 = load ptr, ptr @s_ddmin, align 8, !tbaa !8
  %240 = load ptr, ptr %23, align 8, !tbaa !14
  call void @Cudd_RecursiveDeref(ptr noundef %239, ptr noundef %240)
  call void @llvm.lifetime.end.p0(i64 8, ptr %24) #5
  call void @llvm.lifetime.end.p0(i64 8, ptr %23) #5
  call void @llvm.lifetime.end.p0(i64 8, ptr %22) #5
  call void @llvm.lifetime.end.p0(i64 8, ptr %21) #5
  call void @llvm.lifetime.end.p0(i64 8, ptr %20) #5
  call void @llvm.lifetime.end.p0(i64 8, ptr %19) #5
  call void @llvm.lifetime.end.p0(i64 8, ptr %18) #5
  call void @llvm.lifetime.end.p0(i64 8, ptr %17) #5
  call void @llvm.lifetime.end.p0(i64 8, ptr %16) #5
  call void @llvm.lifetime.end.p0(i64 8, ptr %15) #5
  call void @llvm.lifetime.end.p0(i64 8, ptr %14) #5
  call void @llvm.lifetime.end.p0(i64 4, ptr %13) #5
  ret void
}