; Function Attrs: nounwind uwtable
define void @WriteDDintoBLIFfileReorder(ptr noundef %0, ptr noundef captures(none) %1, ptr noundef %2, ptr noundef %3, ptr noundef %4, ptr noundef readonly captures(none) %5) local_unnamed_addr #0 {
  %7 = alloca %struct.timespec, align 8
  %8 = alloca ptr, align 8
  call void @llvm.lifetime.start.p0(i64 8, ptr nonnull %8) #14
  %9 = load ptr, ptr @s_ddmin, align 8, !tbaa !49
  %10 = icmp eq ptr %9, null
  br i1 %10, label %11, label %Abc_Clock.exit

11:                                               ; preds = %6
  %12 = getelementptr inbounds nuw i8, ptr %0, i64 136
  %13 = load i32, ptr %12, align 8, !tbaa !59
  %14 = tail call ptr @Cudd_Init(i32 noundef %13, i32 noundef 0, i32 noundef 256, i32 noundef 262144, i64 noundef 0) #14
  store ptr %14, ptr @s_ddmin, align 8, !tbaa !49
  br label %Abc_Clock.exit

Abc_Clock.exit:                                   ; preds = %11, %6
  call void @llvm.lifetime.start.p0(i64 16, ptr nonnull %7) #14
  %15 = call i32 @clock_gettime(i32 noundef 1, ptr noundef nonnull %7) #14
  call void @llvm.lifetime.end.p0(i64 16, ptr nonnull %7) #14
  %16 = load ptr, ptr @s_ddmin, align 8, !tbaa !49
  %17 = call ptr @Cudd_bddTransfer(ptr noundef %0, ptr noundef %16, ptr noundef %2) #14
  call void @Cudd_Ref(ptr noundef %17) #14
  %18 = call i32 @Cudd_DagSize(ptr noundef %17) #14
  %19 = call i32 (ptr, ...) @printf(ptr noundef nonnull dereferenceable(1) @.str.30, i32 noundef %18)
  %20 = load ptr, ptr @s_ddmin, align 8, !tbaa !49
  %21 = call i32 @Cudd_ReduceHeap(ptr noundef %20, i32 noundef 6, i32 noundef 1) #14
  %22 = call i32 @Cudd_DagSize(ptr noundef %17) #14
  %23 = call i32 (ptr, ...) @printf(ptr noundef nonnull dereferenceable(1) @.str.31, i32 noundef %22)
  %24 = call ptr @st__init_table(ptr noundef nonnull @st__ptrcmp, ptr noundef nonnull @st__ptrhash) #14
  %25 = ptrtoint ptr %17 to i64
  %26 = and i64 %25, -2
  %27 = inttoptr i64 %26 to ptr
  %28 = call i32 @cuddCollectNodes(ptr noundef %27, ptr noundef %24) #14
  %29 = call ptr @st__init_gen(ptr noundef %24) #14
  %30 = call i32 @st__gen(ptr noundef %29, ptr noundef nonnull %8, ptr noundef null) #14
  %.not77 = icmp eq i32 %30, 0
  br i1 %.not77, label %._crit_edge, label %.lr.ph

.lr.ph:                                           ; preds = %Abc_Clock.exit, %.lr.ph
  %.06978 = phi i64 [ %34, %.lr.ph ], [ 0, %Abc_Clock.exit ]
  %31 = load ptr, ptr %8, align 8, !tbaa !3
  %32 = ptrtoint ptr %31 to i64
  %33 = xor i64 %26, %32
  %34 = or i64 %33, %.06978
  %35 = call i32 @st__gen(ptr noundef %29, ptr noundef nonnull %8, ptr noundef null) #14
  %.not = icmp eq i32 %35, 0
  br i1 %.not, label %._crit_edge, label %.lr.ph, !llvm.loop !60

._crit_edge:                                      ; preds = %.lr.ph, %Abc_Clock.exit
  %.069.lcssa = phi i64 [ 0, %Abc_Clock.exit ], [ %34, %.lr.ph ]
  call void @st__free_gen(ptr noundef %29) #14
  br label %36

36:                                               ; preds = %36, %._crit_edge
  %.079 = phi i32 [ 0, %._crit_edge ], [ %39, %36 ]
  %notmask = shl nsw i32 -1, %.079
  %37 = xor i32 %notmask, -1
  %38 = zext nneg i32 %37 to i64
  %.not74 = icmp sgt i64 %.069.lcssa, %38
  %39 = add nuw nsw i32 %.079, 4
  %40 = icmp samesign ult i32 %.079, 60
  %or.cond = select i1 %.not74, i1 %40, i1 false
  br i1 %or.cond, label %36, label %41, !llvm.loop !61

41:                                               ; preds = %36
  %42 = trunc i64 %25 to i32
  %.lhs.trunc = and i32 %37, %42
  %43 = udiv i32 %.lhs.trunc, 40
  %.zext = zext nneg i32 %43 to i64
  %44 = call i32 (ptr, ptr, ...) @fprintf(ptr noundef %1, ptr noundef nonnull @.str.18, ptr noundef %4, i64 noundef %.zext, ptr noundef %3) #14
  %45 = and i64 %25, 1
  %.not75 = icmp eq i64 %45, 0
  %46 = select i1 %.not75, ptr @.str.21, ptr @.str.20
  %47 = call i32 (ptr, ptr, ...) @fprintf(ptr noundef %1, ptr noundef nonnull @.str.19, ptr noundef nonnull %46) #14
  %48 = call ptr @st__init_gen(ptr noundef %24) #14
  %49 = call i32 @st__gen(ptr noundef %48, ptr noundef nonnull %8, ptr noundef null) #14
  %.not7680 = icmp eq i32 %49, 0
  br i1 %.not7680, label %._crit_edge83, label %.lr.ph82

.lr.ph82:                                         ; preds = %41, %.backedge
  %50 = load ptr, ptr %8, align 8, !tbaa !3
  %51 = load i32, ptr %50, align 8, !tbaa !38
  %52 = icmp eq i32 %51, 2147483647
  br i1 %52, label %53, label %65

53:                                               ; preds = %.lr.ph82
  %54 = ptrtoint ptr %50 to i64
  %55 = and i64 %54, %38
  %56 = udiv i64 %55, 40
  %57 = call i32 (ptr, ptr, ...) @fprintf(ptr noundef %1, ptr noundef nonnull @.str.22, ptr noundef %4, i64 noundef %56) #14
  %58 = load ptr, ptr %8, align 8, !tbaa !3
  %59 = getelementptr inbounds nuw i8, ptr %58, i64 16
  %60 = load double, ptr %59, align 8, !tbaa !39
  %61 = fcmp oeq double %60, 0.000000e+00
  %62 = select i1 %61, ptr @.str.20, ptr @.str.21
  %63 = call i32 (ptr, ptr, ...) @fprintf(ptr noundef %1, ptr noundef nonnull @.str.23, ptr noundef nonnull %62) #14
  br label %.backedge

.backedge:                                        ; preds = %85, %89, %53
  %64 = call i32 @st__gen(ptr noundef %48, ptr noundef nonnull %8, ptr noundef null) #14
  %.not76 = icmp eq i32 %64, 0
  br i1 %.not76, label %._crit_edge83, label %.lr.ph82, !llvm.loop !62

65:                                               ; preds = %.lr.ph82
  %66 = getelementptr inbounds nuw i8, ptr %50, i64 16
  %67 = getelementptr inbounds nuw i8, ptr %50, i64 24
  %68 = load ptr, ptr %67, align 8, !tbaa !39
  %69 = ptrtoint ptr %68 to i64
  %70 = and i64 %69, -2
  %71 = inttoptr i64 %70 to ptr
  %72 = load ptr, ptr %66, align 8, !tbaa !39
  %73 = icmp eq ptr %68, %71
  %74 = zext i32 %51 to i64
  %75 = getelementptr inbounds nuw ptr, ptr %5, i64 %74
  %76 = load ptr, ptr %75, align 8, !tbaa !10
  %77 = and i64 %69, %38
  %78 = udiv i64 %77, 40
  %79 = ptrtoint ptr %72 to i64
  %80 = and i64 %79, %38
  %81 = udiv i64 %80, 40
  %82 = ptrtoint ptr %50 to i64
  %83 = and i64 %82, %38
  %84 = udiv i64 %83, 40
  br i1 %73, label %85, label %89

85:                                               ; preds = %65
  %86 = call i32 (ptr, ptr, ...) @fprintf(ptr noundef %1, ptr noundef nonnull @.str.24, ptr noundef %76, ptr noundef %4, i64 noundef %78, ptr noundef %4, i64 noundef %81, ptr noundef %4, i64 noundef %84) #14
  %87 = call i64 @fwrite(ptr nonnull @.str.25, i64 6, i64 1, ptr %1)
  %88 = call i64 @fwrite(ptr nonnull @.str.26, i64 6, i64 1, ptr %1)
  br label %.backedge

89:                                               ; preds = %65
  %90 = call i32 (ptr, ptr, ...) @fprintf(ptr noundef %1, ptr noundef nonnull @.str.27, ptr noundef %76, ptr noundef %4, i64 noundef %78, ptr noundef %4, i64 noundef %81, ptr noundef %4, i64 noundef %84) #14
  %91 = call i64 @fwrite(ptr nonnull @.str.25, i64 6, i64 1, ptr %1)
  %92 = call i64 @fwrite(ptr nonnull @.str.26, i64 6, i64 1, ptr %1)
  %93 = call i32 (ptr, ptr, ...) @fprintf(ptr noundef %1, ptr noundef nonnull @.str.28, ptr noundef %4, i64 noundef %78, ptr noundef %4, i64 noundef %78) #14
  %94 = call i64 @fwrite(ptr nonnull @.str.29, i64 4, i64 1, ptr %1)
  br label %.backedge

._crit_edge83:                                    ; preds = %.backedge, %41
  call void @st__free_gen(ptr noundef %48) #14
  call void @st__free_table(ptr noundef %24) #14
  %95 = load ptr, ptr @s_ddmin, align 8, !tbaa !49
  call void @Cudd_RecursiveDeref(ptr noundef %95, ptr noundef %17) #14
  call void @llvm.lifetime.end.p0(i64 8, ptr nonnull %8) #14
  ret void
}